target datalayout = "e-m:e-p270:32:32-p271:32:32-p272:64:64-i64:64-i128:128-f80:128-n8:16:32:64-S128"
target triple = "x86_64-unknown-linux-gnu"

%"class.rocksdb::TraceRecord" = type { ptr, i64 }
%"class.rocksdb::QueryTraceRecord" = type { %"class.rocksdb::TraceRecord" }
%"class.rocksdb::PinnableSlice" = type <{ %"class.rocksdb::Slice", %"class.rocksdb::Cleanable", %"class.std::__cxx11::basic_string", ptr, i8, [7 x i8] }>
%"class.rocksdb::Slice" = type { ptr, i64 }
%"class.rocksdb::Cleanable" = type { %"struct.rocksdb::Cleanable::Cleanup" }
%"struct.rocksdb::Cleanable::Cleanup" = type { ptr, ptr, ptr, ptr }
%"class.std::__cxx11::basic_string" = type { %"struct.std::__cxx11::basic_string<char>::_Alloc_hider", i64, %union.anon }
%"struct.std::__cxx11::basic_string<char>::_Alloc_hider" = type { ptr }
%union.anon = type { i64, [8 x i8] }
%"class.rocksdb::IteratorQueryTraceRecord" = type { %"class.rocksdb::QueryTraceRecord", %"class.rocksdb::PinnableSlice", %"class.rocksdb::PinnableSlice" }
%"class.rocksdb::IteratorSeekQueryTraceRecord" = type { %"class.rocksdb::IteratorQueryTraceRecord", i32, i32, %"class.rocksdb::PinnableSlice" }

@_ZTVN7rocksdb11TraceRecordE = unnamed_addr constant { [7 x ptr] } { [7 x ptr] [ptr null, ptr null, ptr @_ZN7rocksdb11TraceRecordD2Ev, ptr @_ZN7rocksdb11TraceRecordD0Ev, ptr @__cxa_pure_virtual, ptr @_ZNK7rocksdb11TraceRecord12GetTimestampEv, ptr @__cxa_pure_virtual] }, align 8

; Function Attrs: mustprogress nounwind uwtable
define linkonce_odr void @_ZN7rocksdb11TraceRecordD2Ev(ptr noundef nonnull align 8 dereferenceable(16) %this) unnamed_addr #0 comdat align 2 {
entry:
  %this.addr = alloca ptr, align 8
  store ptr %this, ptr %this.addr, align 8
  ret void
}

; Function Attrs: mustprogress nounwind uwtable
define void @_ZN7rocksdb11TraceRecordC2Em(ptr noundef nonnull align 8 dereferenceable(16) %this, i64 noundef %timestamp) unnamed_addr #0 align 2 {
entry:
  %this.addr = alloca ptr, align 8
  %timestamp.addr = alloca i64, align 8
  store ptr %this, ptr %this.addr, align 8
  store i64 %timestamp, ptr %timestamp.addr, align 8
  %this1 = load ptr, ptr %this.addr, align 8
  store ptr getelementptr inbounds ({ [7 x ptr] }, ptr @_ZTVN7rocksdb11TraceRecordE, i32 0, i32 0, i32 2), ptr %this1, align 8
  %timestamp_ = getelementptr inbounds %"class.rocksdb::TraceRecord", ptr %this1, i32 0, i32 1
  %0 = load i64, ptr %timestamp.addr, align 8
  store i64 %0, ptr %timestamp_, align 8
  ret void
}

; Function Attrs: mustprogress nounwind uwtable
define linkonce_odr void @_ZN7rocksdb16QueryTraceRecordD2Ev(ptr noundef nonnull align 8 dereferenceable(16) %this) unnamed_addr #0 comdat align 2 {
entry:
  %this.addr = alloca ptr, align 8
  store ptr %this, ptr %this.addr, align 8
  %this1 = load ptr, ptr %this.addr, align 8
  call void @_ZN7rocksdb11TraceRecordD2Ev(ptr noundef nonnull align 8 dereferenceable(16) %this1) #12
  ret void
}

; Function Attrs: mustprogress nounwind uwtable
define linkonce_odr void @_ZN7rocksdb13PinnableSliceD2Ev(ptr noundef nonnull align 8 dereferenceable(89) %this) unnamed_addr #0 comdat align 2 {
entry:
  %this.addr = alloca ptr, align 8
  store ptr %this, ptr %this.addr, align 8
  %this1 = load ptr, ptr %this.addr, align 8
  %self_space_ = getelementptr inbounds %"class.rocksdb::PinnableSlice", ptr %this1, i32 0, i32 2
  call void @_ZNSt7__cxx1112basic_stringIcSt11char_traitsIcESaIcEED1Ev(ptr noundef nonnull align 8 dereferenceable(32) %self_space_) #12
  %0 = getelementptr inbounds i8, ptr %this1, i64 16
  call void @_ZN7rocksdb9CleanableD2Ev(ptr noundef nonnull align 8 dereferenceable(32) %0) #12
  ret void
}

; Function Attrs: mustprogress nounwind uwtable
define void @_ZN7rocksdb16QueryTraceRecordC2Em(ptr noundef nonnull align 8 dereferenceable(16) %this, i64 noundef %timestamp) unnamed_addr #0 align 2 {
entry:
  %this.addr = alloca ptr, align 8
  %timestamp.addr = alloca i64, align 8
  store ptr %this, ptr %this.addr, align 8
  store i64 %timestamp, ptr %timestamp.addr, align 8
  %this1 = load ptr, ptr %this.addr, align 8
  %0 = load i64, ptr %timestamp.addr, align 8
  call void @_ZN7rocksdb11TraceRecordC2Em(ptr noundef nonnull align 8 dereferenceable(16) %this1, i64 noundef %0)
  store ptr getelementptr inbounds ({ [7 x ptr] }, ptr @_ZTVN7rocksdb16QueryTraceRecordE, i32 0, i32 0, i32 2), ptr %this1, align 8
  ret void
}

; Function Attrs: mustprogress uwtable
define void @_ZN7rocksdb24IteratorQueryTraceRecordC2EONS_13PinnableSliceES2_m(ptr noundef nonnull align 8 dereferenceable(208) %this, ptr noundef nonnull align 8 dereferenceable(89) %lower_bound, ptr noundef nonnull align 8 dereferenceable(89) %upper_bound, i64 noundef %timestamp) unnamed_addr #1 align 2 personality ptr @__gxx_personality_v0 {
entry:
  %this.addr = alloca ptr, align 8
  %lower_bound.addr = alloca ptr, align 8
  %upper_bound.addr = alloca ptr, align 8
  %timestamp.addr = alloca i64, align 8
  %exn.slot = alloca ptr, align 8
  %ehselector.slot = alloca i32, align 4
  store ptr %this, ptr %this.addr, align 8
  store ptr %lower_bound, ptr %lower_bound.addr, align 8
  store ptr %upper_bound, ptr %upper_bound.addr, align 8
  store i64 %timestamp, ptr %timestamp.addr, align 8
  %this1 = load ptr, ptr %this.addr, align 8
  %0 = load i64, ptr %timestamp.addr, align 8
  call void @_ZN7rocksdb16QueryTraceRecordC2Em(ptr noundef nonnull align 8 dereferenceable(16) %this1, i64 noundef %0)
  store ptr getelementptr inbounds ({ [9 x ptr] }, ptr @_ZTVN7rocksdb24IteratorQueryTraceRecordE, i32 0, i32 0, i32 2), ptr %this1, align 8
  %lower_ = getelementptr inbounds %"class.rocksdb::IteratorQueryTraceRecord", ptr %this1, i32 0, i32 1
  %1 = load ptr, ptr %lower_bound.addr, align 8
  invoke void @_ZN7rocksdb13PinnableSliceC1EOS0_(ptr noundef nonnull align 8 dereferenceable(89) %lower_, ptr noundef nonnull align 8 dereferenceable(89) %1)
          to label %invoke.cont unwind label %lpad

invoke.cont:                                      ; preds = %entry
  %upper_ = getelementptr inbounds %"class.rocksdb::IteratorQueryTraceRecord", ptr %this1, i32 0, i32 2
  %2 = load ptr, ptr %upper_bound.addr, align 8
  invoke void @_ZN7rocksdb13PinnableSliceC1EOS0_(ptr noundef nonnull align 8 dereferenceable(89) %upper_, ptr noundef nonnull align 8 dereferenceable(89) %2)
          to label %invoke.cont3 unwind label %lpad2

invoke.cont3:                                     ; preds = %invoke.cont
  ret void

lpad:                                             ; preds = %entry
  %3 = landingpad { ptr, i32 }
          cleanup
  %4 = extractvalue { ptr, i32 } %3, 0
  store ptr %4, ptr %exn.slot, align 8
  %5 = extractvalue { ptr, i32 } %3, 1
  store i32 %5, ptr %ehselector.slot, align 4
  br label %ehcleanup

lpad2:                                            ; preds = %invoke.cont
  %6 = landingpad { ptr, i32 }
          cleanup
  %7 = extractvalue { ptr, i32 } %6, 0
  store ptr %7, ptr %exn.slot, align 8
  %8 = extractvalue { ptr, i32 } %6, 1
  store i32 %8, ptr %ehselector.slot, align 4
  call void @_ZN7rocksdb13PinnableSliceD2Ev(ptr noundef nonnull align 8 dereferenceable(89) %lower_) #12
  br label %ehcleanup

ehcleanup:                                        ; preds = %lpad2, %lpad
  call void @_ZN7rocksdb16QueryTraceRecordD2Ev(ptr noundef nonnull align 8 dereferenceable(16) %this1) #12
  br label %eh.resume

eh.resume:                                        ; preds = %ehcleanup
  %exn = load ptr, ptr %exn.slot, align 8
  %sel = load i32, ptr %ehselector.slot, align 4
  %lpad.val = insertvalue { ptr, i32 } poison, ptr %exn, 0
  %lpad.val4 = insertvalue { ptr, i32 } %lpad.val, i32 %sel, 1
  resume { ptr, i32 } %lpad.val4
}

; Function Attrs: mustprogress uwtable
define void @_ZN7rocksdb28IteratorSeekQueryTraceRecordC2ENS0_8SeekTypeEjONS_13PinnableSliceES3_S3_m(ptr noundef nonnull align 8 dereferenceable(312) %this, i32 noundef %seek_type, i32 noundef %column_family_id, ptr noundef nonnull align 8 dereferenceable(89) %key, ptr noundef nonnull align 8 dereferenceable(89) %lower_bound, ptr noundef nonnull align 8 dereferenceable(89) %upper_bound, i64 noundef %timestamp) unnamed_addr #1 align 2 personality ptr @__gxx_personality_v0 {
entry:
  %this.addr = alloca ptr, align 8
  %seek_type.addr = alloca i32, align 4
  %column_family_id.addr = alloca i32, align 4
  %key.addr = alloca ptr, align 8
  %lower_bound.addr = alloca ptr, align 8
  %upper_bound.addr = alloca ptr, align 8
  %timestamp.addr = alloca i64, align 8
  %exn.slot = alloca ptr, align 8
  %ehselector.slot = alloca i32, align 4
  store ptr %this, ptr %this.addr, align 8
  store i32 %seek_type, ptr %seek_type.addr, align 4
  store i32 %column_family_id, ptr %column_family_id.addr, align 4
  store ptr %key, ptr %key.addr, align 8
  store ptr %lower_bound, ptr %lower_bound.addr, align 8
  store ptr %upper_bound, ptr %upper_bound.addr, align 8
  store i64 %timestamp, ptr %timestamp.addr, align 8
  %this1 = load ptr, ptr %this.addr, align 8
  %0 = load ptr, ptr %lower_bound.addr, align 8
  %1 = load ptr, ptr %upper_bound.addr, align 8
  %2 = load i64, ptr %timestamp.addr, align 8
  call void @_ZN7rocksdb24IteratorQueryTraceRecordC2EONS_13PinnableSliceES2_m(ptr noundef nonnull align 8 dereferenceable(208) %this1, ptr noundef nonnull align 8 dereferenceable(89) %0, ptr noundef nonnull align 8 dereferenceable(89) %1, i64 noundef %2)
  store ptr getelementptr inbounds ({ [12 x ptr] }, ptr @_ZTVN7rocksdb28IteratorSeekQueryTraceRecordE, i32 0, i32 0, i32 2), ptr %this1, align 8
  %type_ = getelementptr inbounds %"class.rocksdb::IteratorSeekQueryTraceRecord", ptr %this1, i32 0, i32 1
  %3 = load i32, ptr %seek_type.addr, align 4
  store i32 %3, ptr %type_, align 8
  %cf_id_ = getelementptr inbounds %"class.rocksdb::IteratorSeekQueryTraceRecord", ptr %this1, i32 0, i32 2
  %4 = load i32, ptr %column_family_id.addr, align 4
  store i32 %4, ptr %cf_id_, align 4
  %key_ = getelementptr inbounds %"class.rocksdb::IteratorSeekQueryTraceRecord", ptr %this1, i32 0, i32 3
  %5 = load ptr, ptr %key.addr, align 8
  invoke void @_ZN7rocksdb13PinnableSliceC1EOS0_(ptr noundef nonnull align 8 dereferenceable(89) %key_, ptr noundef nonnull align 8 dereferenceable(89) %5)
          to label %invoke.cont unwind label %lpad

invoke.cont:                                      ; preds = %entry
  ret void

lpad:                                             ; preds = %entry
  %6 = landingpad { ptr, i32 }
          cleanup
  %7 = extractvalue { ptr, i32 } %6, 0
  store ptr %7, ptr %exn.slot, align 8
  %8 = extractvalue { ptr, i32 } %6, 1
  store i32 %8, ptr %ehselector.slot, align 4
  call void @_ZN7rocksdb24IteratorQueryTraceRecordD2Ev(ptr noundef nonnull align 8 dereferenceable(208) %this1) #12
  br label %eh.resume

eh.resume:                                        ; preds = %lpad
  %exn = load ptr, ptr %exn.slot, align 8
  %sel = load i32, ptr %ehselector.slot, align 4
  %lpad.val = insertvalue { ptr, i32 } poison, ptr %exn, 0
  %lpad.val2 = insertvalue { ptr, i32 } %lpad.val, i32 %sel, 1
  resume { ptr, i32 } %lpad.val2
}