; Function Attrs: mustprogress uwtable
define void @_ZN7rocksdb28IteratorSeekQueryTraceRecordC2ENS0_8SeekTypeEjONS_13PinnableSliceES3_S3_m(ptr noundef nonnull align 8 dereferenceable(312) %this, i32 noundef %seek_type, i32 noundef %column_family_id, ptr noundef nonnull align 8 dereferenceable(89) %key, ptr noundef nonnull align 8 dereferenceable(89) %lower_bound, ptr noundef nonnull align 8 dereferenceable(89) %upper_bound, i64 noundef %timestamp) unnamed_addr #2 align 2 personality ptr @__gxx_personality_v0 {
entry:
  %timestamp_.i.i.i = getelementptr inbounds i8, ptr %this, i64 8
  store i64 %timestamp, ptr %timestamp_.i.i.i, align 8
  store ptr getelementptr inbounds ({ [9 x ptr] }, ptr @_ZTVN7rocksdb24IteratorQueryTraceRecordE, i64 0, i32 0, i64 2), ptr %this, align 8
  %lower_.i = getelementptr inbounds i8, ptr %this, i64 16
  tail call void @_ZN7rocksdb13PinnableSliceC1EOS0_(ptr noundef nonnull align 8 dereferenceable(89) %lower_.i, ptr noundef nonnull align 8 dereferenceable(89) %lower_bound)
  %upper_.i = getelementptr inbounds i8, ptr %this, i64 112
  invoke void @_ZN7rocksdb13PinnableSliceC1EOS0_(ptr noundef nonnull align 8 dereferenceable(89) %upper_.i, ptr noundef nonnull align 8 dereferenceable(89) %upper_bound)
          to label %_ZN7rocksdb24IteratorQueryTraceRecordC2EONS_13PinnableSliceES2_m.exit unwind label %lpad2.i

common.resume:                                    ; preds = %lpad, %lpad2.i
  %common.resume.op = phi { ptr, i32 } [ %0, %lpad2.i ], [ %2, %lpad ]
  resume { ptr, i32 } %common.resume.op

lpad2.i:                                          ; preds = %entry
  %0 = landingpad { ptr, i32 }
          cleanup
  %self_space_.i.i = getelementptr inbounds i8, ptr %this, i64 64
  tail call void @_ZNSt7__cxx1112basic_stringIcSt11char_traitsIcESaIcEED1Ev(ptr noundef nonnull align 8 dereferenceable(32) %self_space_.i.i) #17
  %1 = getelementptr inbounds i8, ptr %this, i64 32
  tail call void @_ZN7rocksdb9CleanableD2Ev(ptr noundef nonnull align 8 dereferenceable(32) %1) #17
  br label %common.resume

_ZN7rocksdb24IteratorQueryTraceRecordC2EONS_13PinnableSliceES2_m.exit: ; preds = %entry
  store ptr getelementptr inbounds ({ [12 x ptr] }, ptr @_ZTVN7rocksdb28IteratorSeekQueryTraceRecordE, i64 0, i32 0, i64 2), ptr %this, align 8
  %type_ = getelementptr inbounds i8, ptr %this, i64 208
  store i32 %seek_type, ptr %type_, align 8
  %cf_id_ = getelementptr inbounds i8, ptr %this, i64 212
  store i32 %column_family_id, ptr %cf_id_, align 4
  %key_ = getelementptr inbounds i8, ptr %this, i64 216
  invoke void @_ZN7rocksdb13PinnableSliceC1EOS0_(ptr noundef nonnull align 8 dereferenceable(89) %key_, ptr noundef nonnull align 8 dereferenceable(89) %key)
          to label %invoke.cont unwind label %lpad

invoke.cont:                                      ; preds = %_ZN7rocksdb24IteratorQueryTraceRecordC2EONS_13PinnableSliceES2_m.exit
  ret void

lpad:                                             ; preds = %_ZN7rocksdb24IteratorQueryTraceRecordC2EONS_13PinnableSliceES2_m.exit
  %2 = landingpad { ptr, i32 }
          cleanup
  tail call void @_ZN7rocksdb24IteratorQueryTraceRecordD2Ev(ptr noundef nonnull align 8 dereferenceable(208) %this) #17
  br label %common.resume
}